target datalayout = "e-m:e-p270:32:32-p271:32:32-p272:64:64-i64:64-i128:128-f80:128-n8:16:32:64-S128"
target triple = "x86_64-pc-linux-gnu"

%struct._lv_obj_t = type { ptr, ptr, ptr, ptr, ptr, %struct.lv_area_t, i32, i16, i16 }
%struct.lv_area_t = type { i32, i32, i32, i32 }
%struct._lv_menu_page_t = type { %struct._lv_obj_t, ptr, i8 }

; Function Attrs: nounwind uwtable
define internal void @lv_menu_page_destructor(ptr noundef %0, ptr noundef %1) #0 {
  %3 = alloca ptr, align 8
  %4 = alloca ptr, align 8
  %5 = alloca ptr, align 8
  store ptr %0, ptr %3, align 8, !tbaa !3
  store ptr %1, ptr %4, align 8, !tbaa !3
  call void @llvm.lifetime.start.p0(i64 8, ptr %5) #3
  %6 = load ptr, ptr %4, align 8, !tbaa !3
  store ptr %6, ptr %5, align 8, !tbaa !3
  %7 = load ptr, ptr %5, align 8, !tbaa !3
  %8 = getelementptr inbounds nuw %struct._lv_menu_page_t, ptr %7, i32 0, i32 2
  %9 = load i8, ptr %8, align 8, !tbaa !27, !range !30, !noundef !31
  %10 = trunc i8 %9 to i1
  br i1 %10, label %20, label %11

11:                                               ; preds = %2
  %12 = load ptr, ptr %5, align 8, !tbaa !3
  %13 = getelementptr inbounds nuw %struct._lv_menu_page_t, ptr %12, i32 0, i32 1
  %14 = load ptr, ptr %13, align 8, !tbaa !32
  %15 = icmp ne ptr %14, null
  br i1 %15, label %16, label %20

16:                                               ; preds = %11
  %17 = load ptr, ptr %5, align 8, !tbaa !3
  %18 = getelementptr inbounds nuw %struct._lv_menu_page_t, ptr %17, i32 0, i32 1
  %19 = load ptr, ptr %18, align 8, !tbaa !32
  call void @lv_free(ptr noundef %19)
  br label %20

20:                                               ; preds = %16, %11, %2
  %21 = load ptr, ptr %5, align 8, !tbaa !3
  %22 = getelementptr inbounds nuw %struct._lv_menu_page_t, ptr %21, i32 0, i32 1
  store ptr null, ptr %22, align 8, !tbaa !32
  %23 = load ptr, ptr %5, align 8, !tbaa !3
  %24 = getelementptr inbounds nuw %struct._lv_menu_page_t, ptr %23, i32 0, i32 2
  store i8 0, ptr %24, align 8, !tbaa !27
  call void @llvm.lifetime.end.p0(i64 8, ptr %5) #3
  ret void
}