; Function Attrs: nounwind uwtable
define internal void @lv_menu_page_destructor(ptr nocapture readnone %0, ptr nocapture noundef %1) #0 {
  %3 = getelementptr inbounds nuw i8, ptr %1, i64 72
  %4 = load i8, ptr %3, align 8, !tbaa !21, !range !24, !noundef !25
  %5 = trunc nuw i8 %4 to i1
  br i1 %5, label %10, label %6

6:                                                ; preds = %2
  %7 = getelementptr inbounds nuw i8, ptr %1, i64 64
  %8 = load ptr, ptr %7, align 8, !tbaa !26
  %.not = icmp eq ptr %8, null
  br i1 %.not, label %10, label %9

9:                                                ; preds = %6
  tail call void @lv_free(ptr noundef nonnull %8) #4
  br label %10

10:                                               ; preds = %9, %6, %2
  %11 = getelementptr inbounds nuw i8, ptr %1, i64 64
  store ptr null, ptr %11, align 8, !tbaa !26
  store i8 0, ptr %3, align 8, !tbaa !21
  ret void
}